; ModuleID = 'bench/libuv/original/thread-common.ll'
source_filename = "bench/libuv/original/thread-common.ll"
target datalayout = "e-m:e-p270:32:32-p271:32:32-p272:64:64-i64:64-i128:128-f80:128-n8:16:32:64-S128"
target triple = "x86_64-pc-linux-gnu"

; Function Attrs: nounwind uwtable
define dso_local range(i32 -2147483647, -2147483648) i32 @uv_barrier_init(ptr noundef %0, i32 noundef %1) local_unnamed_addr #0 {
  %3 = tail call i32 @pthread_barrier_init(ptr noundef %0, ptr noundef null, i32 noundef %1) #3
  %4 = sub nsw i32 0, %3
  ret i32 %4
}

; Function Attrs: nounwind
declare i32 @pthread_barrier_init(ptr noundef, ptr noundef, i32 noundef) local_unnamed_addr #1

; Function Attrs: nounwind uwtable
define dso_local range(i32 0, 2) i32 @uv_barrier_wait(ptr noundef %0) local_unnamed_addr #0 {
  %2 = tail call i32 @pthread_barrier_wait(ptr noundef %0) #3
  %3 = add i32 %2, -1
  %or.cond = icmp ult i32 %3, -2
  br i1 %or.cond, label %4, label %5

4:                                                ; preds = %1
  tail call void @abort() #4
  unreachable

5:                                                ; preds = %1
  %6 = icmp eq i32 %2, -1
  %7 = zext i1 %6 to i32
  ret i32 %7
}

; Function Attrs: nounwind
declare i32 @pthread_barrier_wait(ptr noundef) local_unnamed_addr #1

; Function Attrs: cold nofree noreturn nounwind
declare void @abort() local_unnamed_addr #2

; Function Attrs: nounwind uwtable
define dso_local void @uv_barrier_destroy(ptr noundef %0) local_unnamed_addr #0 {
  %2 = tail call i32 @pthread_barrier_destroy(ptr noundef %0) #3
  %.not = icmp eq i32 %2, 0
  br i1 %.not, label %4, label %3

3:                                                ; preds = %1
  tail call void @abort() #4
  unreachable

4:                                                ; preds = %1
  ret void
}

; Function Attrs: nounwind
declare i32 @pthread_barrier_destroy(ptr noundef) local_unnamed_addr #1


!llvm.module.flags = !{!0, !1, !2, !3}

!0 = !{i32 1, !"wchar_size", i32 4}
!1 = !{i32 8, !"PIC Level", i32 2}
!2 = !{i32 7, !"PIE Level", i32 2}
!3 = !{i32 7, !"uwtable", i32 2}
